target datalayout = "e-m:e-p270:32:32-p271:32:32-p272:64:64-i64:64-i128:128-f80:128-n8:16:32:64-S128"
target triple = "x86_64-pc-linux-gnu"

@TextSplit.result = internal global [128 x ptr] zeroinitializer, align 16
@TextSplit.buffer = internal global [1024 x i8] zeroinitializer, align 16

; Function Attrs: nounwind uwtable
define ptr @TextSplit(ptr noundef %0, i8 noundef signext %1, ptr noundef %2) #0 {
  %4 = alloca ptr, align 8
  %5 = alloca i8, align 1
  %6 = alloca ptr, align 8
  %7 = alloca i32, align 4
  %8 = alloca i32, align 4
  %9 = alloca i32, align 4
  store ptr %0, ptr %4, align 8
  store i8 %1, ptr %5, align 1
  store ptr %2, ptr %6, align 8
  call void @llvm.memset.p0.i64(ptr align 16 @TextSplit.buffer, i8 0, i64 1024, i1 false)
  store ptr @TextSplit.buffer, ptr @TextSplit.result, align 16
  call void @llvm.lifetime.start.p0(i64 4, ptr %7) #13
  store i32 0, ptr %7, align 4
  %10 = load ptr, ptr %4, align 8
  %11 = icmp ne ptr %10, null
  br i1 %11, label %12, label %66

12:                                               ; preds = %3
  store i32 1, ptr %7, align 4
  call void @llvm.lifetime.start.p0(i64 4, ptr %8) #13
  store i32 0, ptr %8, align 4
  br label %13

13:                                               ; preds = %61, %12
  %14 = load i32, ptr %8, align 4
  %15 = icmp slt i32 %14, 1024
  br i1 %15, label %17, label %16

16:                                               ; preds = %13
  store i32 2, ptr %9, align 4
  br label %64

17:                                               ; preds = %13
  %18 = load ptr, ptr %4, align 8
  %19 = load i32, ptr %8, align 4
  %20 = sext i32 %19 to i64
  %21 = getelementptr inbounds i8, ptr %18, i64 %20
  %22 = load i8, ptr %21, align 1
  %23 = load i32, ptr %8, align 4
  %24 = sext i32 %23 to i64
  %25 = getelementptr inbounds [1024 x i8], ptr @TextSplit.buffer, i64 0, i64 %24
  store i8 %22, ptr %25, align 1
  %26 = load i32, ptr %8, align 4
  %27 = sext i32 %26 to i64
  %28 = getelementptr inbounds [1024 x i8], ptr @TextSplit.buffer, i64 0, i64 %27
  %29 = load i8, ptr %28, align 1
  %30 = sext i8 %29 to i32
  %31 = icmp eq i32 %30, 0
  br i1 %31, label %32, label %33

32:                                               ; preds = %17
  store i32 2, ptr %9, align 4
  br label %64

33:                                               ; preds = %17
  %34 = load i32, ptr %8, align 4
  %35 = sext i32 %34 to i64
  %36 = getelementptr inbounds [1024 x i8], ptr @TextSplit.buffer, i64 0, i64 %35
  %37 = load i8, ptr %36, align 1
  %38 = sext i8 %37 to i32
  %39 = load i8, ptr %5, align 1
  %40 = sext i8 %39 to i32
  %41 = icmp eq i32 %38, %40
  br i1 %41, label %42, label %59

42:                                               ; preds = %33
  %43 = load i32, ptr %8, align 4
  %44 = sext i32 %43 to i64
  %45 = getelementptr inbounds [1024 x i8], ptr @TextSplit.buffer, i64 0, i64 %44
  store i8 0, ptr %45, align 1
  %46 = load i32, ptr %8, align 4
  %47 = sext i32 %46 to i64
  %48 = getelementptr inbounds i8, ptr @TextSplit.buffer, i64 %47
  %49 = getelementptr inbounds i8, ptr %48, i64 1
  %50 = load i32, ptr %7, align 4
  %51 = sext i32 %50 to i64
  %52 = getelementptr inbounds [128 x ptr], ptr @TextSplit.result, i64 0, i64 %51
  store ptr %49, ptr %52, align 8
  %53 = load i32, ptr %7, align 4
  %54 = add nsw i32 %53, 1
  store i32 %54, ptr %7, align 4
  %55 = load i32, ptr %7, align 4
  %56 = icmp eq i32 %55, 128
  br i1 %56, label %57, label %58

57:                                               ; preds = %42
  store i32 2, ptr %9, align 4
  br label %64

58:                                               ; preds = %42
  br label %59

59:                                               ; preds = %58, %33
  br label %60

60:                                               ; preds = %59
  br label %61

61:                                               ; preds = %60
  %62 = load i32, ptr %8, align 4
  %63 = add nsw i32 %62, 1
  store i32 %63, ptr %8, align 4
  br label %13

64:                                               ; preds = %57, %32, %16
  call void @llvm.lifetime.end.p0(i64 4, ptr %8) #13
  br label %65

65:                                               ; preds = %64
  br label %66

66:                                               ; preds = %65, %3
  %67 = load i32, ptr %7, align 4
  %68 = load ptr, ptr %6, align 8
  store i32 %67, ptr %68, align 4
  store i32 1, ptr %9, align 4
  call void @llvm.lifetime.end.p0(i64 4, ptr %7) #13
  ret ptr @TextSplit.result
}