; Function Attrs: nofree norecurse nosync nounwind memory(write, argmem: readwrite, inaccessiblemem: none) uwtable
define noundef nonnull ptr @TextSplit(ptr noundef readonly captures(address_is_null) %0, i8 noundef signext %1, ptr noundef writeonly captures(none) %2) local_unnamed_addr #29 {
  tail call void @llvm.memset.p0.i64(ptr noundef nonnull align 16 dereferenceable(1024) @TextSplit.buffer, i8 0, i64 1024, i1 false)
  store ptr @TextSplit.buffer, ptr @TextSplit.result, align 16
  %.not = icmp eq ptr %0, null
  br i1 %.not, label %.loopexit, label %.preheader

.preheader:                                       ; preds = %3, %15
  %indvars.iv = phi i64 [ %indvars.iv.next, %15 ], [ 0, %3 ]
  %.120 = phi i32 [ %.3, %15 ], [ 1, %3 ]
  %4 = getelementptr inbounds nuw i8, ptr %0, i64 %indvars.iv
  %5 = load i8, ptr %4, align 1
  %6 = getelementptr inbounds nuw [1024 x i8], ptr @TextSplit.buffer, i64 0, i64 %indvars.iv
  store i8 %5, ptr %6, align 1
  %7 = icmp eq i8 %5, 0
  br i1 %7, label %.loopexit, label %8

8:                                                ; preds = %.preheader
  %9 = icmp eq i8 %5, %1
  br i1 %9, label %10, label %15

10:                                               ; preds = %8
  store i8 0, ptr %6, align 1
  %gep = getelementptr inbounds nuw i8, ptr getelementptr inbounds nuw (i8, ptr @TextSplit.buffer, i64 1), i64 %indvars.iv
  %11 = sext i32 %.120 to i64
  %12 = getelementptr inbounds [128 x ptr], ptr @TextSplit.result, i64 0, i64 %11
  store ptr %gep, ptr %12, align 8
  %13 = add nsw i32 %.120, 1
  %14 = icmp eq i32 %13, 128
  br i1 %14, label %.loopexit, label %15

15:                                               ; preds = %10, %8
  %.3 = phi i32 [ %13, %10 ], [ %.120, %8 ]
  %indvars.iv.next = add nuw nsw i64 %indvars.iv, 1
  %exitcond.not = icmp eq i64 %indvars.iv.next, 1024
  br i1 %exitcond.not, label %.loopexit, label %.preheader

.loopexit:                                        ; preds = %15, %.preheader, %10, %3
  %.015 = phi i32 [ 0, %3 ], [ 128, %10 ], [ %.120, %.preheader ], [ %.3, %15 ]
  store i32 %.015, ptr %2, align 4
  ret ptr @TextSplit.result
}